; Function Attrs: mustprogress nofree norecurse nosync nounwind memory(readwrite, inaccessiblemem: none) uwtable
define hidden void @_ZN13fr_bit_vector5resetEv(ptr noundef nonnull readonly align 8 captures(none) dereferenceable(24) %0) local_unnamed_addr #6 align 2 {
  %2 = load i32, ptr %0, align 8, !tbaa !11
  %3 = getelementptr inbounds nuw i8, ptr %0, i64 16
  %4 = load ptr, ptr %3, align 8, !tbaa !25
  %5 = icmp eq ptr %4, null
  br i1 %5, label %_ZN6vectorIjLb0EjE5resetEv.exit, label %_ZN6vectorIjLb0EjE3endEv.exit

_ZN6vectorIjLb0EjE3endEv.exit:                    ; preds = %1
  %6 = getelementptr inbounds i8, ptr %4, i64 -4
  %7 = load i32, ptr %6, align 4, !tbaa !12
  %8 = zext i32 %7 to i64
  %9 = getelementptr inbounds nuw i32, ptr %4, i64 %8
  %.not8 = icmp eq i32 %7, 0
  br i1 %.not8, label %._crit_edge.thread12, label %.lr.ph

.lr.ph:                                           ; preds = %_ZN6vectorIjLb0EjE3endEv.exit
  %10 = getelementptr inbounds nuw i8, ptr %0, i64 8
  %11 = load ptr, ptr %10, align 8
  br label %12

12:                                               ; preds = %.lr.ph, %24
  %.09 = phi ptr [ %4, %.lr.ph ], [ %25, %24 ]
  %13 = load i32, ptr %.09, align 4, !tbaa !12
  %14 = icmp ult i32 %13, %2
  br i1 %14, label %15, label %24

15:                                               ; preds = %12
  %16 = and i32 %13, 31
  %17 = shl nuw i32 1, %16
  %18 = xor i32 %17, -1
  %19 = lshr i32 %13, 5
  %20 = zext nneg i32 %19 to i64
  %21 = getelementptr inbounds nuw i32, ptr %11, i64 %20
  %22 = load i32, ptr %21, align 4, !tbaa !12
  %23 = and i32 %22, %18
  store i32 %23, ptr %21, align 4, !tbaa !12
  br label %24

24:                                               ; preds = %15, %12
  %25 = getelementptr inbounds nuw i8, ptr %.09, i64 4
  %.not = icmp eq ptr %25, %9
  br i1 %.not, label %._crit_edge.thread12, label %12, !llvm.loop !27

._crit_edge.thread12:                             ; preds = %24, %_ZN6vectorIjLb0EjE3endEv.exit
  %26 = getelementptr inbounds i8, ptr %4, i64 -4
  store i32 0, ptr %26, align 4, !tbaa !12
  br label %_ZN6vectorIjLb0EjE5resetEv.exit

_ZN6vectorIjLb0EjE5resetEv.exit:                  ; preds = %1, %._crit_edge.thread12
  ret void
}